; Function Attrs: mustprogress uwtable
define void @_ZN6casadi16DeserializerBase15blind_unpack_dmEv(ptr dead_on_unwind noalias nonnull writable sret(%"class.casadi::Matrix.77") align 8 %0, ptr nocapture noundef nonnull readonly align 8 dereferenceable(16) %1) local_unnamed_addr #3 align 2 personality ptr @__gxx_personality_v0 {
  %3 = alloca %"class.casadi::Matrix.77", align 8
  tail call void @_ZN6casadi6MatrixIdEC1Ev(ptr noundef nonnull align 8 dereferenceable(40) %0)
  %4 = invoke noundef nonnull align 8 dereferenceable(41) ptr @_ZN6casadi16DeserializerBase12deserializerEv(ptr noundef nonnull align 8 dereferenceable(16) %1)
          to label %5 unwind label %13

5:                                                ; preds = %2
  call void @llvm.lifetime.start.p0(i64 40, ptr nonnull %3)
  invoke void @_ZN6casadi6MatrixIdE11deserializeERNS_19DeserializingStreamE(ptr dead_on_unwind nonnull writable sret(%"class.casadi::Matrix.77") align 8 %3, ptr noundef nonnull align 8 dereferenceable(41) %4)
          to label %.noexc unwind label %13

.noexc:                                           ; preds = %5
  %6 = invoke noundef nonnull align 8 dereferenceable(40) ptr @_ZN6casadi6MatrixIdEaSERKS1_(ptr noundef nonnull align 8 dereferenceable(40) %0, ptr noundef nonnull align 8 dereferenceable(40) %3)
          to label %7 unwind label %11

7:                                                ; preds = %.noexc
  %8 = getelementptr inbounds i8, ptr %3, i64 16
  %9 = load ptr, ptr %8, align 8
  %.not.i.i.i.i.i = icmp eq ptr %9, null
  br i1 %.not.i.i.i.i.i, label %15, label %10

10:                                               ; preds = %7
  call void @_ZdlPv(ptr noundef nonnull %9) #20
  br label %15

11:                                               ; preds = %.noexc
  %12 = landingpad { ptr, i32 }
          cleanup
  call void @_ZN6casadi6MatrixIdED2Ev(ptr noundef nonnull align 8 dereferenceable(40) %3) #21
  br label %.body

13:                                               ; preds = %5, %2
  %14 = landingpad { ptr, i32 }
          cleanup
  br label %.body

.body:                                            ; preds = %11, %13
  %eh.lpad-body = phi { ptr, i32 } [ %14, %13 ], [ %12, %11 ]
  call void @_ZN6casadi6MatrixIdED2Ev(ptr noundef nonnull align 8 dereferenceable(40) %0) #21
  resume { ptr, i32 } %eh.lpad-body

15:                                               ; preds = %10, %7
  %16 = getelementptr inbounds i8, ptr %3, i64 8
  call void @_ZN6casadi12SharedObjectD2Ev(ptr noundef nonnull align 8 dereferenceable(8) %16) #21
  call void @llvm.lifetime.end.p0(i64 40, ptr nonnull %3)
  ret void
}